target datalayout = "e-m:e-p270:32:32-p271:32:32-p272:64:64-i64:64-i128:128-f80:128-n8:16:32:64-S128"
target triple = "x86_64-pc-linux-gnu"

%struct._proto_node = type { ptr, ptr, ptr, ptr, ptr, ptr, ptr }
%struct.field_info = type { ptr, i32, i32, i32, i32, i32, i32, ptr, ptr, ptr, i32, i32 }

@hf_fr_nlpid = internal global i32 0, align 4
@hf_fr_oui = internal global i32 0, align 4
@hf_fr_pid = internal global i32 0, align 4
@hf_fr_snaptype = internal global i32 0, align 4
@fr_subdissector_table = internal global ptr null, align 8
@fr_osinl_subdissector_table = internal global ptr null, align 8
@data_handle = internal global ptr null, align 8
@osinl_incl_subdissector_table = internal global ptr null, align 8
@.str.134 = private unnamed_addr constant [8 x i8] c"Padding\00", align 1

; Function Attrs: inlinehint nounwind null_pointer_is_valid sspstrong uwtable
define internal void @proto_item_set_hidden(ptr noundef %0) #3 {
  %2 = alloca ptr, align 8
  store ptr %0, ptr %2, align 8
  %3 = load ptr, ptr %2, align 8
  %4 = icmp ne ptr %3, null
  br i1 %4, label %5, label %24

5:                                                ; preds = %1
  br label %6

6:                                                ; preds = %5
  %7 = load ptr, ptr %2, align 8
  %8 = getelementptr inbounds nuw %struct._proto_node, ptr %7, i32 0, i32 5
  %9 = load ptr, ptr %8, align 8
  %10 = icmp ne ptr %9, null
  br i1 %10, label %11, label %22

11:                                               ; preds = %6
  %12 = load ptr, ptr %2, align 8
  %13 = getelementptr inbounds nuw %struct._proto_node, ptr %12, i32 0, i32 5
  %14 = load ptr, ptr %13, align 8
  %15 = getelementptr inbounds nuw %struct.field_info, ptr %14, i32 0, i32 6
  %16 = load i32, ptr %15, align 4
  %17 = or i32 %16, 1
  %18 = load ptr, ptr %2, align 8
  %19 = getelementptr inbounds nuw %struct._proto_node, ptr %18, i32 0, i32 5
  %20 = load ptr, ptr %19, align 8
  %21 = getelementptr inbounds nuw %struct.field_info, ptr %20, i32 0, i32 6
  store i32 %17, ptr %21, align 4
  br label %22

22:                                               ; preds = %11, %6
  br label %23

23:                                               ; preds = %22
  br label %24

24:                                               ; preds = %23, %1
  ret void
}

; Function Attrs: null_pointer_is_valid sspstrong uwtable
define internal void @dissect_fr_nlpid(ptr noundef %0, i32 noundef %1, ptr noundef %2, ptr noundef %3, ptr noundef %4, ptr noundef %5, i8 noundef zeroext %6) #0 {
  %8 = alloca ptr, align 8
  %9 = alloca i32, align 4
  %10 = alloca ptr, align 8
  %11 = alloca ptr, align 8
  %12 = alloca ptr, align 8
  %13 = alloca ptr, align 8
  %14 = alloca i8, align 1
  %15 = alloca i8, align 1
  %16 = alloca ptr, align 8
  %17 = alloca ptr, align 8
  %18 = alloca i32, align 4
  store ptr %0, ptr %8, align 8
  store i32 %1, ptr %9, align 4
  store ptr %2, ptr %10, align 8
  store ptr %3, ptr %11, align 8
  store ptr %4, ptr %12, align 8
  store ptr %5, ptr %13, align 8
  store i8 %6, ptr %14, align 1
  call void @llvm.lifetime.start.p0(i64 1, ptr %15) #4
  call void @llvm.lifetime.start.p0(i64 8, ptr %16) #4
  %19 = load ptr, ptr %12, align 8
  %20 = load ptr, ptr %8, align 8
  %21 = load i32, ptr %9, align 4
  call void @proto_item_set_end(ptr noundef %19, ptr noundef %20, i32 noundef %21)
  %22 = load ptr, ptr %8, align 8
  %23 = load i32, ptr %9, align 4
  %24 = call zeroext i8 @tvb_get_uint8(ptr noundef %22, i32 noundef %23)
  store i8 %24, ptr %15, align 1
  %25 = load i8, ptr %15, align 1
  %26 = zext i8 %25 to i32
  %27 = icmp eq i32 %26, 0
  br i1 %27, label %28, label %48

28:                                               ; preds = %7
  %29 = load ptr, ptr %13, align 8
  %30 = load i32, ptr @hf_fr_nlpid, align 4
  %31 = load ptr, ptr %8, align 8
  %32 = load i32, ptr %9, align 4
  %33 = load i8, ptr %15, align 1
  %34 = zext i8 %33 to i32
  %35 = call ptr (ptr, i32, ptr, i32, i32, i32, ptr, ...) @proto_tree_add_uint_format(ptr noundef %29, i32 noundef %30, ptr noundef %31, i32 noundef %32, i32 noundef 1, i32 noundef %34, ptr noundef @.str.134)
  %36 = load i32, ptr %9, align 4
  %37 = add i32 %36, 1
  store i32 %37, ptr %9, align 4
  %38 = load ptr, ptr %12, align 8
  %39 = icmp ne ptr %38, null
  br i1 %39, label %40, label %44

40:                                               ; preds = %28
  %41 = load ptr, ptr %12, align 8
  %42 = load ptr, ptr %8, align 8
  %43 = load i32, ptr %9, align 4
  call void @proto_item_set_end(ptr noundef %41, ptr noundef %42, i32 noundef %43)
  br label %44

44:                                               ; preds = %40, %28
  %45 = load ptr, ptr %8, align 8
  %46 = load i32, ptr %9, align 4
  %47 = call zeroext i8 @tvb_get_uint8(ptr noundef %45, i32 noundef %46)
  store i8 %47, ptr %15, align 1
  br label %48

48:                                               ; preds = %44, %7
  %49 = load ptr, ptr %8, align 8
  %50 = load i32, ptr %9, align 4
  %51 = call ptr @tvb_new_subset_remaining(ptr noundef %49, i32 noundef %50)
  store ptr %51, ptr %16, align 8
  %52 = load ptr, ptr @fr_osinl_subdissector_table, align 8
  %53 = load i8, ptr %15, align 1
  %54 = zext i8 %53 to i32
  %55 = load ptr, ptr %16, align 8
  %56 = load ptr, ptr %10, align 8
  %57 = load ptr, ptr %11, align 8
  %58 = call i32 @dissector_try_uint(ptr noundef %52, i32 noundef %54, ptr noundef %55, ptr noundef %56, ptr noundef %57)
  %59 = icmp ne i32 %58, 0
  br i1 %59, label %69, label %60

60:                                               ; preds = %48
  %61 = load ptr, ptr @osinl_incl_subdissector_table, align 8
  %62 = load i8, ptr %15, align 1
  %63 = zext i8 %62 to i32
  %64 = load ptr, ptr %16, align 8
  %65 = load ptr, ptr %10, align 8
  %66 = load ptr, ptr %11, align 8
  %67 = call i32 @dissector_try_uint(ptr noundef %61, i32 noundef %63, ptr noundef %64, ptr noundef %65, ptr noundef %66)
  %68 = icmp ne i32 %67, 0
  br i1 %68, label %69, label %82

69:                                               ; preds = %60, %48
  %70 = load ptr, ptr %11, align 8
  %71 = icmp ne ptr %70, null
  br i1 %71, label %72, label %81

72:                                               ; preds = %69
  call void @llvm.lifetime.start.p0(i64 8, ptr %17) #4
  %73 = load ptr, ptr %13, align 8
  %74 = load i32, ptr @hf_fr_nlpid, align 4
  %75 = load ptr, ptr %8, align 8
  %76 = load i32, ptr %9, align 4
  %77 = load i8, ptr %15, align 1
  %78 = zext i8 %77 to i32
  %79 = call ptr @proto_tree_add_uint(ptr noundef %73, i32 noundef %74, ptr noundef %75, i32 noundef %76, i32 noundef 1, i32 noundef %78)
  store ptr %79, ptr %17, align 8
  %80 = load ptr, ptr %17, align 8
  call void @proto_item_set_hidden(ptr noundef %80)
  call void @llvm.lifetime.end.p0(i64 8, ptr %17) #4
  br label %81

81:                                               ; preds = %72, %69
  store i32 1, ptr %18, align 4
  br label %144

82:                                               ; preds = %60
  %83 = load ptr, ptr %11, align 8
  %84 = icmp ne ptr %83, null
  br i1 %84, label %85, label %93

85:                                               ; preds = %82
  %86 = load ptr, ptr %13, align 8
  %87 = load i32, ptr @hf_fr_nlpid, align 4
  %88 = load ptr, ptr %8, align 8
  %89 = load i32, ptr %9, align 4
  %90 = load i8, ptr %15, align 1
  %91 = zext i8 %90 to i32
  %92 = call ptr @proto_tree_add_uint(ptr noundef %86, i32 noundef %87, ptr noundef %88, i32 noundef %89, i32 noundef 1, i32 noundef %91)
  br label %93

93:                                               ; preds = %85, %82
  %94 = load i32, ptr %9, align 4
  %95 = add i32 %94, 1
  store i32 %95, ptr %9, align 4
  %96 = load i8, ptr %15, align 1
  %97 = zext i8 %96 to i32
  switch i32 %97, label %117 [
    i32 128, label %98
  ]

98:                                               ; preds = %93
  %99 = load ptr, ptr %12, align 8
  %100 = icmp ne ptr %99, null
  br i1 %100, label %101, label %106

101:                                              ; preds = %98
  %102 = load ptr, ptr %12, align 8
  %103 = load ptr, ptr %8, align 8
  %104 = load i32, ptr %9, align 4
  %105 = add i32 %104, 5
  call void @proto_item_set_end(ptr noundef %102, ptr noundef %103, i32 noundef %105)
  br label %106

106:                                              ; preds = %101, %98
  %107 = load ptr, ptr %8, align 8
  %108 = load i32, ptr %9, align 4
  %109 = load ptr, ptr %10, align 8
  %110 = load ptr, ptr %11, align 8
  %111 = load ptr, ptr %13, align 8
  %112 = load i8, ptr %14, align 1
  %113 = zext i8 %112 to i32
  %114 = load i32, ptr @hf_fr_oui, align 4
  %115 = load i32, ptr @hf_fr_snaptype, align 4
  %116 = load i32, ptr @hf_fr_pid, align 4
  call void @dissect_snap(ptr noundef %107, i32 noundef %108, ptr noundef %109, ptr noundef %110, ptr noundef %111, i32 noundef %113, i32 noundef %114, i32 noundef %115, i32 noundef %116, i32 noundef 0)
  store i32 1, ptr %18, align 4
  br label %144

117:                                              ; preds = %93
  %118 = load ptr, ptr %12, align 8
  %119 = icmp ne ptr %118, null
  br i1 %119, label %120, label %124

120:                                              ; preds = %117
  %121 = load ptr, ptr %12, align 8
  %122 = load ptr, ptr %8, align 8
  %123 = load i32, ptr %9, align 4
  call void @proto_item_set_end(ptr noundef %121, ptr noundef %122, i32 noundef %123)
  br label %124

124:                                              ; preds = %120, %117
  %125 = load ptr, ptr %8, align 8
  %126 = load i32, ptr %9, align 4
  %127 = call ptr @tvb_new_subset_remaining(ptr noundef %125, i32 noundef %126)
  store ptr %127, ptr %16, align 8
  %128 = load ptr, ptr @fr_subdissector_table, align 8
  %129 = load i8, ptr %15, align 1
  %130 = zext i8 %129 to i32
  %131 = load ptr, ptr %16, align 8
  %132 = load ptr, ptr %10, align 8
  %133 = load ptr, ptr %11, align 8
  %134 = call i32 @dissector_try_uint(ptr noundef %128, i32 noundef %130, ptr noundef %131, ptr noundef %132, ptr noundef %133)
  %135 = icmp ne i32 %134, 0
  br i1 %135, label %142, label %136

136:                                              ; preds = %124
  %137 = load ptr, ptr @data_handle, align 8
  %138 = load ptr, ptr %16, align 8
  %139 = load ptr, ptr %10, align 8
  %140 = load ptr, ptr %11, align 8
  %141 = call i32 @call_dissector(ptr noundef %137, ptr noundef %138, ptr noundef %139, ptr noundef %140)
  br label %142

142:                                              ; preds = %136, %124
  br label %143

143:                                              ; preds = %142
  store i32 0, ptr %18, align 4
  br label %144

144:                                              ; preds = %143, %106, %81
  call void @llvm.lifetime.end.p0(i64 8, ptr %16) #4
  call void @llvm.lifetime.end.p0(i64 1, ptr %15) #4
  %145 = load i32, ptr %18, align 4
  switch i32 %145, label %147 [
    i32 0, label %146
    i32 1, label %146
  ]

146:                                              ; preds = %144, %144
  ret void

147:                                              ; preds = %144
  unreachable
}