; Function Attrs: null_pointer_is_valid sspstrong uwtable
define internal fastcc void @dissect_fr_nlpid(ptr noundef %0, i32 noundef %1, ptr noundef %2, ptr noundef %3, ptr noundef %4, ptr noundef %5, i8 noundef zeroext %6) unnamed_addr #0 {
  tail call void @proto_item_set_end(ptr noundef %4, ptr noundef %0, i32 noundef %1)
  %8 = tail call zeroext i8 @tvb_get_uint8(ptr noundef %0, i32 noundef %1)
  %9 = icmp eq i8 %8, 0
  br i1 %9, label %10, label %17

10:                                               ; preds = %7
  %11 = load i32, ptr @hf_fr_nlpid, align 4
  %12 = tail call ptr (ptr, i32, ptr, i32, i32, i32, ptr, ...) @proto_tree_add_uint_format(ptr noundef %5, i32 noundef %11, ptr noundef %0, i32 noundef %1, i32 noundef 1, i32 noundef 0, ptr noundef nonnull @.str.134)
  %13 = add i32 %1, 1
  %.not = icmp eq ptr %4, null
  br i1 %.not, label %15, label %14

14:                                               ; preds = %10
  tail call void @proto_item_set_end(ptr noundef nonnull %4, ptr noundef %0, i32 noundef %13)
  br label %15

15:                                               ; preds = %14, %10
  %16 = tail call zeroext i8 @tvb_get_uint8(ptr noundef %0, i32 noundef %13)
  br label %17

17:                                               ; preds = %15, %7
  %.062 = phi i8 [ %16, %15 ], [ %8, %7 ]
  %.0 = phi i32 [ %13, %15 ], [ %1, %7 ]
  %18 = tail call ptr @tvb_new_subset_remaining(ptr noundef %0, i32 noundef %.0)
  %19 = load ptr, ptr @fr_osinl_subdissector_table, align 8
  %20 = zext i8 %.062 to i32
  %21 = tail call i32 @dissector_try_uint(ptr noundef %19, i32 noundef %20, ptr noundef %18, ptr noundef %2, ptr noundef %3)
  %.not66 = icmp eq i32 %21, 0
  br i1 %.not66, label %22, label %25

22:                                               ; preds = %17
  %23 = load ptr, ptr @osinl_incl_subdissector_table, align 8
  %24 = tail call i32 @dissector_try_uint(ptr noundef %23, i32 noundef %20, ptr noundef %18, ptr noundef %2, ptr noundef %3)
  %.not67 = icmp eq i32 %24, 0
  br i1 %.not67, label %36, label %25

25:                                               ; preds = %22, %17
  %.not72 = icmp eq ptr %3, null
  br i1 %.not72, label %proto_item_set_hidden.exit, label %26

26:                                               ; preds = %25
  %27 = load i32, ptr @hf_fr_nlpid, align 4
  %28 = tail call ptr @proto_tree_add_uint(ptr noundef %5, i32 noundef %27, ptr noundef %0, i32 noundef %.0, i32 noundef 1, i32 noundef %20)
  %.not.i = icmp eq ptr %28, null
  br i1 %.not.i, label %proto_item_set_hidden.exit, label %29

29:                                               ; preds = %26
  %30 = getelementptr inbounds nuw i8, ptr %28, i64 40
  %31 = load ptr, ptr %30, align 8
  %.not5.i = icmp eq ptr %31, null
  br i1 %.not5.i, label %proto_item_set_hidden.exit, label %32

32:                                               ; preds = %29
  %33 = getelementptr inbounds nuw i8, ptr %31, i64 28
  %34 = load i32, ptr %33, align 4
  %35 = or i32 %34, 1
  store i32 %35, ptr %33, align 4
  br label %proto_item_set_hidden.exit

36:                                               ; preds = %22
  %.not68 = icmp eq ptr %3, null
  br i1 %.not68, label %40, label %37

37:                                               ; preds = %36
  %38 = load i32, ptr @hf_fr_nlpid, align 4
  %39 = tail call ptr @proto_tree_add_uint(ptr noundef %5, i32 noundef %38, ptr noundef %0, i32 noundef %.0, i32 noundef 1, i32 noundef %20)
  br label %40

40:                                               ; preds = %37, %36
  %41 = add i32 %.0, 1
  %cond = icmp eq i8 %.062, -128
  %.not71 = icmp eq ptr %4, null
  br i1 %cond, label %42, label %50

42:                                               ; preds = %40
  br i1 %.not71, label %45, label %43

43:                                               ; preds = %42
  %44 = add i32 %.0, 6
  tail call void @proto_item_set_end(ptr noundef nonnull %4, ptr noundef %0, i32 noundef %44)
  br label %45

45:                                               ; preds = %43, %42
  %46 = zext i8 %6 to i32
  %47 = load i32, ptr @hf_fr_oui, align 4
  %48 = load i32, ptr @hf_fr_snaptype, align 4
  %49 = load i32, ptr @hf_fr_pid, align 4
  tail call void @dissect_snap(ptr noundef %0, i32 noundef %41, ptr noundef %2, ptr noundef %3, ptr noundef %5, i32 noundef %46, i32 noundef %47, i32 noundef %48, i32 noundef %49, i32 noundef 0)
  br label %proto_item_set_hidden.exit

50:                                               ; preds = %40
  br i1 %.not71, label %52, label %51

51:                                               ; preds = %50
  tail call void @proto_item_set_end(ptr noundef nonnull %4, ptr noundef %0, i32 noundef %41)
  br label %52

52:                                               ; preds = %51, %50
  %53 = tail call ptr @tvb_new_subset_remaining(ptr noundef %0, i32 noundef %41)
  %54 = load ptr, ptr @fr_subdissector_table, align 8
  %55 = tail call i32 @dissector_try_uint(ptr noundef %54, i32 noundef %20, ptr noundef %53, ptr noundef %2, ptr noundef %3)
  %.not70 = icmp eq i32 %55, 0
  br i1 %.not70, label %56, label %proto_item_set_hidden.exit

56:                                               ; preds = %52
  %57 = load ptr, ptr @data_handle, align 8
  %58 = tail call i32 @call_dissector(ptr noundef %57, ptr noundef %53, ptr noundef %2, ptr noundef %3)
  br label %proto_item_set_hidden.exit

proto_item_set_hidden.exit:                       ; preds = %32, %29, %26, %56, %52, %25, %45
  ret void
}